target datalayout = "e-m:e-p270:32:32-p271:32:32-p272:64:64-i64:64-i128:128-f80:128-n8:16:32:64-S128"
target triple = "x86_64-pc-linux-gnu"

%struct.TestConfig = type <{ i32, i8, i8, i8, i8, %"class.std::__cxx11::basic_string", %"class.std::__cxx11::basic_string", %"class.std::__cxx11::basic_string", %"class.std::__cxx11::basic_string", %"class.std::__cxx11::basic_string", i8, [7 x i8], %"class.std::__cxx11::basic_string", %"class.std::__cxx11::basic_string", i8, [7 x i8], %"class.std::__cxx11::basic_string", i8, i8, i8, i8, i8, i8, i8, i8, %"class.std::__cxx11::basic_string", %"class.std::__cxx11::basic_string", i8, [7 x i8], %"class.std::__cxx11::basic_string", %"class.std::__cxx11::basic_string", %"class.std::__cxx11::basic_string", %"class.std::__cxx11::basic_string", %"class.std::__cxx11::basic_string", i8, i8, i8, [5 x i8], %"class.std::__cxx11::basic_string", %"class.std::__cxx11::basic_string", %"class.std::__cxx11::basic_string", i8, [7 x i8], %"class.std::__cxx11::basic_string", i8, [7 x i8], %"class.std::__cxx11::basic_string", i32, i32, i32, i8, i8, i8, i8, i8, i8, [6 x i8], %"class.std::__cxx11::basic_string", %"class.std::__cxx11::basic_string", %"class.std::__cxx11::basic_string", i8, [3 x i8], i32, %"class.std::__cxx11::basic_string", %"class.std::__cxx11::basic_string", i8, i8, i8, i8, i8, i8, i8, i8, i8, i8, [6 x i8], %"class.std::__cxx11::basic_string", i8, i8, i8, i8, i8, [3 x i8], %"class.std::__cxx11::basic_string", i32, i8, i8, i8, i8, i32, i8, i8, i8, i8, i32, i8, [3 x i8] }>
%"class.std::__cxx11::basic_string" = type { %"struct.std::__cxx11::basic_string<char>::_Alloc_hider", i64, %union.anon }
%"struct.std::__cxx11::basic_string<char>::_Alloc_hider" = type { ptr }
%union.anon = type { i64, [8 x i8] }

@_ZL14g_config_index = internal global i32 0, align 4
@_ZZL17TicketKeyCallbackP6ssl_stPhS1_P17evp_cipher_ctx_stP11hmac_ctx_stiE6kZeros = internal constant [16 x i8] zeroinitializer, align 16

; Function Attrs: mustprogress uwtable
define internal noundef ptr @_ZL12GetConfigPtrPK6ssl_st(ptr noundef %0) #6 {
  %2 = alloca ptr, align 8
  store ptr %0, ptr %2, align 8, !tbaa !204
  %3 = load ptr, ptr %2, align 8, !tbaa !204
  %4 = load i32, ptr @_ZL14g_config_index, align 4, !tbaa !6
  %5 = call ptr @SSL_get_ex_data(ptr noundef %3, i32 noundef %4)
  ret ptr %5
}

; Function Attrs: mustprogress uwtable
define internal noundef i32 @_ZL17TicketKeyCallbackP6ssl_stPhS1_P17evp_cipher_ctx_stP11hmac_ctx_sti(ptr noundef %0, ptr noundef %1, ptr noundef %2, ptr noundef %3, ptr noundef %4, i32 noundef %5) #6 {
  %7 = alloca i32, align 4
  %8 = alloca ptr, align 8
  %9 = alloca ptr, align 8
  %10 = alloca ptr, align 8
  %11 = alloca ptr, align 8
  %12 = alloca ptr, align 8
  %13 = alloca i32, align 4
  store ptr %0, ptr %8, align 8, !tbaa !204
  store ptr %1, ptr %9, align 8, !tbaa !13
  store ptr %2, ptr %10, align 8, !tbaa !13
  store ptr %3, ptr %11, align 8, !tbaa !221
  store ptr %4, ptr %12, align 8, !tbaa !223
  store i32 %5, ptr %13, align 4, !tbaa !6
  %14 = load i32, ptr %13, align 4, !tbaa !6
  %15 = icmp ne i32 %14, 0
  br i1 %15, label %16, label %20

16:                                               ; preds = %6
  %17 = load ptr, ptr %9, align 8, !tbaa !13
  call void @llvm.memcpy.p0.p0.i64(ptr align 1 %17, ptr align 16 @_ZZL17TicketKeyCallbackP6ssl_stPhS1_P17evp_cipher_ctx_stP11hmac_ctx_stiE6kZeros, i64 16, i1 false)
  %18 = load ptr, ptr %10, align 8, !tbaa !13
  %19 = call i32 @RAND_bytes(ptr noundef %18, i64 noundef 16)
  br label %26

20:                                               ; preds = %6
  %21 = load ptr, ptr %9, align 8, !tbaa !13
  %22 = call i32 @memcmp(ptr noundef %21, ptr noundef @_ZZL17TicketKeyCallbackP6ssl_stPhS1_P17evp_cipher_ctx_stP11hmac_ctx_stiE6kZeros, i64 noundef 16) #23
  %23 = icmp ne i32 %22, 0
  br i1 %23, label %24, label %25

24:                                               ; preds = %20
  store i32 0, ptr %7, align 4
  br label %50

25:                                               ; preds = %20
  br label %26

26:                                               ; preds = %25, %16
  %27 = load ptr, ptr %12, align 8, !tbaa !223
  %28 = call ptr @EVP_sha256()
  %29 = call i32 @HMAC_Init_ex(ptr noundef %27, ptr noundef @_ZZL17TicketKeyCallbackP6ssl_stPhS1_P17evp_cipher_ctx_stP11hmac_ctx_stiE6kZeros, i64 noundef 16, ptr noundef %28, ptr noundef null)
  %30 = icmp ne i32 %29, 0
  br i1 %30, label %31, label %38

31:                                               ; preds = %26
  %32 = load ptr, ptr %11, align 8, !tbaa !221
  %33 = call ptr @EVP_aes_128_cbc()
  %34 = load ptr, ptr %10, align 8, !tbaa !13
  %35 = load i32, ptr %13, align 4, !tbaa !6
  %36 = call i32 @EVP_CipherInit_ex(ptr noundef %32, ptr noundef %33, ptr noundef null, ptr noundef @_ZZL17TicketKeyCallbackP6ssl_stPhS1_P17evp_cipher_ctx_stP11hmac_ctx_stiE6kZeros, ptr noundef %34, i32 noundef %35)
  %37 = icmp ne i32 %36, 0
  br i1 %37, label %39, label %38

38:                                               ; preds = %31, %26
  store i32 -1, ptr %7, align 4
  br label %50

39:                                               ; preds = %31
  %40 = load i32, ptr %13, align 4, !tbaa !6
  %41 = icmp ne i32 %40, 0
  br i1 %41, label %49, label %42

42:                                               ; preds = %39
  %43 = load ptr, ptr %8, align 8, !tbaa !204
  %44 = call noundef ptr @_ZL12GetConfigPtrPK6ssl_st(ptr noundef %43)
  %45 = getelementptr inbounds nuw %struct.TestConfig, ptr %44, i32 0, i32 70
  %46 = load i8, ptr %45, align 1, !tbaa !67, !range !23, !noundef !24
  %47 = trunc i8 %46 to i1
  %48 = select i1 %47, i32 2, i32 1
  store i32 %48, ptr %7, align 4
  br label %50

49:                                               ; preds = %39
  store i32 1, ptr %7, align 4
  br label %50

50:                                               ; preds = %49, %42, %38, %24
  %51 = load i32, ptr %7, align 4
  ret i32 %51
}