; Function Attrs: mustprogress uwtable
define internal noundef range(i32 -1, 3) i32 @_ZL17TicketKeyCallbackP6ssl_stPhS1_P17evp_cipher_ctx_stP11hmac_ctx_sti(ptr noundef %0, ptr noundef captures(none) %1, ptr noundef %2, ptr noundef %3, ptr noundef %4, i32 noundef %5) #10 {
  %.not = icmp ne i32 %5, 0
  br i1 %.not, label %7, label %9

7:                                                ; preds = %6
  tail call void @llvm.memset.p0.i64(ptr noundef nonnull align 1 dereferenceable(16) %1, i8 0, i64 16, i1 false)
  %8 = tail call i32 @RAND_bytes(ptr noundef %2, i64 noundef 16)
  br label %10

9:                                                ; preds = %6
  %bcmp = tail call i32 @bcmp(ptr noundef nonnull dereferenceable(16) %1, ptr noundef nonnull dereferenceable(16) @_ZZL17TicketKeyCallbackP6ssl_stPhS1_P17evp_cipher_ctx_stP11hmac_ctx_stiE6kZeros, i64 16)
  %.not10 = icmp eq i32 %bcmp, 0
  br i1 %.not10, label %10, label %23

10:                                               ; preds = %9, %7
  %11 = tail call ptr @EVP_sha256()
  %12 = tail call i32 @HMAC_Init_ex(ptr noundef %4, ptr noundef nonnull @_ZZL17TicketKeyCallbackP6ssl_stPhS1_P17evp_cipher_ctx_stP11hmac_ctx_stiE6kZeros, i64 noundef 16, ptr noundef %11, ptr noundef null)
  %.not11 = icmp eq i32 %12, 0
  br i1 %.not11, label %23, label %13

13:                                               ; preds = %10
  %14 = tail call ptr @EVP_aes_128_cbc()
  %15 = tail call i32 @EVP_CipherInit_ex(ptr noundef %3, ptr noundef %14, ptr noundef null, ptr noundef nonnull @_ZZL17TicketKeyCallbackP6ssl_stPhS1_P17evp_cipher_ctx_stP11hmac_ctx_stiE6kZeros, ptr noundef %2, i32 noundef %5)
  %.not12 = icmp eq i32 %15, 0
  %brmerge = or i1 %.not, %.not12
  %.mux = select i1 %.not12, i32 -1, i32 1
  br i1 %brmerge, label %23, label %16

16:                                               ; preds = %13
  %17 = load i32, ptr @_ZL14g_config_index, align 4, !tbaa !6
  %18 = tail call noundef ptr @SSL_get_ex_data(ptr noundef %0, i32 noundef %17)
  %19 = getelementptr inbounds nuw i8, ptr %18, i64 901
  %20 = load i8, ptr %19, align 1, !tbaa !162, !range !39, !noundef !40
  %21 = trunc nuw i8 %20 to i1
  %22 = select i1 %21, i32 2, i32 1
  br label %23

23:                                               ; preds = %13, %10, %9, %16
  %.0 = phi i32 [ %22, %16 ], [ 0, %9 ], [ %.mux, %13 ], [ -1, %10 ]
  ret i32 %.0
}